target datalayout = "e-m:e-p270:32:32-p271:32:32-p272:64:64-i64:64-i128:128-f80:128-n8:16:32:64-S128"
target triple = "x86_64-pc-linux-gnu"

%class.btMatrix3x3 = type { [3 x %class.btVector3] }
%class.btVector3 = type { [4 x float] }

; Function Attrs: inlinehint mustprogress nounwind uwtable
define linkonce_odr dso_local noundef ptr @_ZNK9btVector3cvPKfEv(ptr noundef nonnull align 4 dereferenceable(16) %0) #4 comdat align 2 {
  %2 = alloca ptr, align 8
  store ptr %0, ptr %2, align 8, !tbaa !52
  %3 = load ptr, ptr %2, align 8
  %4 = getelementptr inbounds nuw %class.btVector3, ptr %3, i32 0, i32 0
  %5 = getelementptr inbounds [4 x float], ptr %4, i64 0, i64 0
  ret ptr %5
}

; Function Attrs: inlinehint mustprogress nounwind uwtable
define linkonce_odr dso_local noundef nonnull align 4 dereferenceable(16) ptr @_ZNK11btMatrix3x3ixEi(ptr noundef nonnull align 4 dereferenceable(48) %0, i32 noundef %1) #4 comdat align 2 {
  %3 = alloca ptr, align 8
  %4 = alloca i32, align 4
  store ptr %0, ptr %3, align 8, !tbaa !57
  store i32 %1, ptr %4, align 4, !tbaa !9
  %5 = load ptr, ptr %3, align 8
  %6 = getelementptr inbounds nuw %class.btMatrix3x3, ptr %5, i32 0, i32 0
  %7 = load i32, ptr %4, align 4, !tbaa !9
  %8 = sext i32 %7 to i64
  %9 = getelementptr inbounds [3 x %class.btVector3], ptr %6, i64 0, i64 %8
  ret ptr %9
}

; Function Attrs: mustprogress uwtable
define linkonce_odr dso_local noundef nonnull align 4 dereferenceable(4) ptr @_ZNK24btInverseDynamicsBullet35mat33clEii(ptr noundef nonnull align 4 dereferenceable(48) %0, i32 noundef %1, i32 noundef %2) #2 comdat align 2 {
  %4 = alloca ptr, align 8
  %5 = alloca i32, align 4
  %6 = alloca i32, align 4
  store ptr %0, ptr %4, align 8, !tbaa !22
  store i32 %1, ptr %5, align 4, !tbaa !9
  store i32 %2, ptr %6, align 4, !tbaa !9
  %7 = load ptr, ptr %4, align 8
  %8 = load i32, ptr %5, align 4, !tbaa !9
  %9 = call noundef nonnull align 4 dereferenceable(16) ptr @_ZNK11btMatrix3x3ixEi(ptr noundef nonnull align 4 dereferenceable(48) %7, i32 noundef %8)
  %10 = call noundef ptr @_ZNK9btVector3cvPKfEv(ptr noundef nonnull align 4 dereferenceable(16) %9)
  %11 = load i32, ptr %6, align 4, !tbaa !9
  %12 = sext i32 %11 to i64
  %13 = getelementptr inbounds float, ptr %10, i64 %12
  ret ptr %13
}

; Function Attrs: mustprogress uwtable
define dso_local noundef float @_ZN24btInverseDynamicsBullet311determinantERKNS_5mat33E(ptr noundef nonnull align 4 dereferenceable(48) %0) #2 {
  %2 = alloca ptr, align 8
  store ptr %0, ptr %2, align 8, !tbaa !22
  %3 = load ptr, ptr %2, align 8, !tbaa !22
  %4 = call noundef nonnull align 4 dereferenceable(4) ptr @_ZNK24btInverseDynamicsBullet35mat33clEii(ptr noundef nonnull align 4 dereferenceable(48) %3, i32 noundef 0, i32 noundef 0)
  %5 = load float, ptr %4, align 4, !tbaa !14
  %6 = load ptr, ptr %2, align 8, !tbaa !22
  %7 = call noundef nonnull align 4 dereferenceable(4) ptr @_ZNK24btInverseDynamicsBullet35mat33clEii(ptr noundef nonnull align 4 dereferenceable(48) %6, i32 noundef 1, i32 noundef 1)
  %8 = load float, ptr %7, align 4, !tbaa !14
  %9 = fmul float %5, %8
  %10 = load ptr, ptr %2, align 8, !tbaa !22
  %11 = call noundef nonnull align 4 dereferenceable(4) ptr @_ZNK24btInverseDynamicsBullet35mat33clEii(ptr noundef nonnull align 4 dereferenceable(48) %10, i32 noundef 2, i32 noundef 2)
  %12 = load float, ptr %11, align 4, !tbaa !14
  %13 = load ptr, ptr %2, align 8, !tbaa !22
  %14 = call noundef nonnull align 4 dereferenceable(4) ptr @_ZNK24btInverseDynamicsBullet35mat33clEii(ptr noundef nonnull align 4 dereferenceable(48) %13, i32 noundef 0, i32 noundef 1)
  %15 = load float, ptr %14, align 4, !tbaa !14
  %16 = load ptr, ptr %2, align 8, !tbaa !22
  %17 = call noundef nonnull align 4 dereferenceable(4) ptr @_ZNK24btInverseDynamicsBullet35mat33clEii(ptr noundef nonnull align 4 dereferenceable(48) %16, i32 noundef 1, i32 noundef 2)
  %18 = load float, ptr %17, align 4, !tbaa !14
  %19 = fmul float %15, %18
  %20 = load ptr, ptr %2, align 8, !tbaa !22
  %21 = call noundef nonnull align 4 dereferenceable(4) ptr @_ZNK24btInverseDynamicsBullet35mat33clEii(ptr noundef nonnull align 4 dereferenceable(48) %20, i32 noundef 2, i32 noundef 0)
  %22 = load float, ptr %21, align 4, !tbaa !14
  %23 = fmul float %19, %22
  %24 = call float @llvm.fmuladd.f32(float %9, float %12, float %23)
  %25 = load ptr, ptr %2, align 8, !tbaa !22
  %26 = call noundef nonnull align 4 dereferenceable(4) ptr @_ZNK24btInverseDynamicsBullet35mat33clEii(ptr noundef nonnull align 4 dereferenceable(48) %25, i32 noundef 0, i32 noundef 2)
  %27 = load float, ptr %26, align 4, !tbaa !14
  %28 = load ptr, ptr %2, align 8, !tbaa !22
  %29 = call noundef nonnull align 4 dereferenceable(4) ptr @_ZNK24btInverseDynamicsBullet35mat33clEii(ptr noundef nonnull align 4 dereferenceable(48) %28, i32 noundef 1, i32 noundef 0)
  %30 = load float, ptr %29, align 4, !tbaa !14
  %31 = fmul float %27, %30
  %32 = load ptr, ptr %2, align 8, !tbaa !22
  %33 = call noundef nonnull align 4 dereferenceable(4) ptr @_ZNK24btInverseDynamicsBullet35mat33clEii(ptr noundef nonnull align 4 dereferenceable(48) %32, i32 noundef 2, i32 noundef 1)
  %34 = load float, ptr %33, align 4, !tbaa !14
  %35 = call float @llvm.fmuladd.f32(float %31, float %34, float %24)
  %36 = load ptr, ptr %2, align 8, !tbaa !22
  %37 = call noundef nonnull align 4 dereferenceable(4) ptr @_ZNK24btInverseDynamicsBullet35mat33clEii(ptr noundef nonnull align 4 dereferenceable(48) %36, i32 noundef 0, i32 noundef 2)
  %38 = load float, ptr %37, align 4, !tbaa !14
  %39 = load ptr, ptr %2, align 8, !tbaa !22
  %40 = call noundef nonnull align 4 dereferenceable(4) ptr @_ZNK24btInverseDynamicsBullet35mat33clEii(ptr noundef nonnull align 4 dereferenceable(48) %39, i32 noundef 1, i32 noundef 1)
  %41 = load float, ptr %40, align 4, !tbaa !14
  %42 = fmul float %38, %41
  %43 = load ptr, ptr %2, align 8, !tbaa !22
  %44 = call noundef nonnull align 4 dereferenceable(4) ptr @_ZNK24btInverseDynamicsBullet35mat33clEii(ptr noundef nonnull align 4 dereferenceable(48) %43, i32 noundef 2, i32 noundef 0)
  %45 = load float, ptr %44, align 4, !tbaa !14
  %46 = fneg float %42
  %47 = call float @llvm.fmuladd.f32(float %46, float %45, float %35)
  %48 = load ptr, ptr %2, align 8, !tbaa !22
  %49 = call noundef nonnull align 4 dereferenceable(4) ptr @_ZNK24btInverseDynamicsBullet35mat33clEii(ptr noundef nonnull align 4 dereferenceable(48) %48, i32 noundef 0, i32 noundef 0)
  %50 = load float, ptr %49, align 4, !tbaa !14
  %51 = load ptr, ptr %2, align 8, !tbaa !22
  %52 = call noundef nonnull align 4 dereferenceable(4) ptr @_ZNK24btInverseDynamicsBullet35mat33clEii(ptr noundef nonnull align 4 dereferenceable(48) %51, i32 noundef 1, i32 noundef 2)
  %53 = load float, ptr %52, align 4, !tbaa !14
  %54 = fmul float %50, %53
  %55 = load ptr, ptr %2, align 8, !tbaa !22
  %56 = call noundef nonnull align 4 dereferenceable(4) ptr @_ZNK24btInverseDynamicsBullet35mat33clEii(ptr noundef nonnull align 4 dereferenceable(48) %55, i32 noundef 2, i32 noundef 1)
  %57 = load float, ptr %56, align 4, !tbaa !14
  %58 = fneg float %54
  %59 = call float @llvm.fmuladd.f32(float %58, float %57, float %47)
  %60 = load ptr, ptr %2, align 8, !tbaa !22
  %61 = call noundef nonnull align 4 dereferenceable(4) ptr @_ZNK24btInverseDynamicsBullet35mat33clEii(ptr noundef nonnull align 4 dereferenceable(48) %60, i32 noundef 0, i32 noundef 1)
  %62 = load float, ptr %61, align 4, !tbaa !14
  %63 = load ptr, ptr %2, align 8, !tbaa !22
  %64 = call noundef nonnull align 4 dereferenceable(4) ptr @_ZNK24btInverseDynamicsBullet35mat33clEii(ptr noundef nonnull align 4 dereferenceable(48) %63, i32 noundef 1, i32 noundef 0)
  %65 = load float, ptr %64, align 4, !tbaa !14
  %66 = fmul float %62, %65
  %67 = load ptr, ptr %2, align 8, !tbaa !22
  %68 = call noundef nonnull align 4 dereferenceable(4) ptr @_ZNK24btInverseDynamicsBullet35mat33clEii(ptr noundef nonnull align 4 dereferenceable(48) %67, i32 noundef 2, i32 noundef 2)
  %69 = load float, ptr %68, align 4, !tbaa !14
  %70 = fneg float %66
  %71 = call float @llvm.fmuladd.f32(float %70, float %69, float %59)
  ret float %71
}